target datalayout = "e-m:e-p270:32:32-p271:32:32-p272:64:64-i64:64-i128:128-f80:128-n8:16:32:64-S128"
target triple = "x86_64-pc-linux-gnu"

%"class.std::__1::basic_string" = type { %"class.std::__1::__compressed_pair.10" }
%"class.std::__1::__compressed_pair.10" = type { %"struct.std::__1::__compressed_pair_elem.11" }
%"struct.std::__1::__compressed_pair_elem.11" = type { %"struct.std::__1::basic_string<char>::__rep" }
%"struct.std::__1::basic_string<char>::__rep" = type { %union.anon }
%union.anon = type { %"struct.std::__1::basic_string<char>::__long" }
%"struct.std::__1::basic_string<char>::__long" = type { %struct.anon.12, i64, ptr }
%struct.anon.12 = type { i64 }
%"class.mitsuba::Thread" = type { %"class.mitsuba::Object.base", %"class.std::__1::unique_ptr" }
%"class.mitsuba::Object.base" = type <{ ptr, %"struct.std::__1::atomic.2" }>
%"struct.std::__1::atomic.2" = type { %"struct.std::__1::__atomic_base.3" }
%"struct.std::__1::__atomic_base.3" = type { %"struct.std::__1::__atomic_base.4" }
%"struct.std::__1::__atomic_base.4" = type { %"struct.std::__1::__cxx_atomic_impl.5" }
%"struct.std::__1::__cxx_atomic_impl.5" = type { %"struct.std::__1::__cxx_atomic_base_impl.6" }
%"struct.std::__1::__cxx_atomic_base_impl.6" = type { i32 }
%"class.std::__1::unique_ptr" = type { %"class.std::__1::__compressed_pair.7" }
%"class.std::__1::__compressed_pair.7" = type { %"struct.std::__1::__compressed_pair_elem.8" }
%"struct.std::__1::__compressed_pair_elem.8" = type { ptr }
%"class.mitsuba::Object" = type <{ ptr, %"struct.std::__1::atomic.2", [4 x i8] }>
%"struct.mitsuba::Thread::ThreadPrivate" = type { %"class.std::__1::thread", i64, %"class.std::__1::basic_string", i8, i8, i8, i32, i32, %"class.mitsuba::ref", %"class.mitsuba::ref.17", %"class.mitsuba::ref.18" }
%"class.std::__1::thread" = type { i64 }
%"class.mitsuba::ref" = type { ptr }
%"class.mitsuba::ref.17" = type { ptr }
%"class.mitsuba::ref.18" = type { ptr }
%"struct.std::__1::__value_init_tag" = type { i8 }

@_ZTVN7mitsuba6ObjectE = external unnamed_addr constant { [11 x ptr] }, align 8

; Function Attrs: mustprogress nounwind uwtable
define linkonce_odr hidden void @_ZNSt3__122__cxx_atomic_base_implIiEC2Ei(ptr noundef nonnull align 4 dereferenceable(4) %0, i32 noundef %1) unnamed_addr #1 comdat align 2 {
  %3 = alloca ptr, align 8
  %4 = alloca i32, align 4
  store ptr %0, ptr %3, align 8
  store i32 %1, ptr %4, align 4
  %5 = load ptr, ptr %3, align 8
  %6 = getelementptr inbounds %"struct.std::__1::__cxx_atomic_base_impl.6", ptr %5, i32 0, i32 0
  %7 = load i32, ptr %4, align 4
  store i32 %7, ptr %6, align 4
  ret void
}

; Function Attrs: mustprogress nounwind uwtable
define linkonce_odr hidden void @_ZNSt3__117__cxx_atomic_implIiNS_22__cxx_atomic_base_implIiEEEC2B8ne190000Ei(ptr noundef nonnull align 4 dereferenceable(4) %0, i32 noundef %1) unnamed_addr #1 comdat align 2 {
  %3 = alloca ptr, align 8
  %4 = alloca i32, align 4
  store ptr %0, ptr %3, align 8
  store i32 %1, ptr %4, align 4
  %5 = load ptr, ptr %3, align 8
  %6 = load i32, ptr %4, align 4
  call void @_ZNSt3__122__cxx_atomic_base_implIiEC2Ei(ptr noundef nonnull align 4 dereferenceable(4) %5, i32 noundef %6) #2
  ret void
}

; Function Attrs: mustprogress nounwind uwtable
define linkonce_odr hidden void @_ZNSt3__113__atomic_baseIiLb0EEC2B8ne190000Ei(ptr noundef nonnull align 4 dereferenceable(4) %0, i32 noundef %1) unnamed_addr #1 comdat align 2 {
  %3 = alloca ptr, align 8
  %4 = alloca i32, align 4
  store ptr %0, ptr %3, align 8
  store i32 %1, ptr %4, align 4
  %5 = load ptr, ptr %3, align 8
  %6 = getelementptr inbounds %"struct.std::__1::__atomic_base.4", ptr %5, i32 0, i32 0
  %7 = load i32, ptr %4, align 4
  call void @_ZNSt3__117__cxx_atomic_implIiNS_22__cxx_atomic_base_implIiEEEC2B8ne190000Ei(ptr noundef nonnull align 4 dereferenceable(4) %6, i32 noundef %7) #2
  ret void
}

; Function Attrs: mustprogress nounwind uwtable
define linkonce_odr hidden void @_ZNSt3__122__compressed_pair_elemINS_14default_deleteIN7mitsuba6Thread13ThreadPrivateEEELi1ELb1EEC2B8ne190000ENS_16__value_init_tagE(ptr noundef nonnull align 1 dereferenceable(1) %0) unnamed_addr #1 comdat align 2 {
  %2 = alloca ptr, align 8
  store ptr %0, ptr %2, align 8
  ret void
}

; Function Attrs: mustprogress nounwind uwtable
define linkonce_odr hidden void @_ZNSt3__122__compressed_pair_elemIPN7mitsuba6Thread13ThreadPrivateELi0ELb0EEC2B8ne190000IRS4_TnNS_9enable_ifIXntsr7is_sameIS5_u7__decayIT_EEE5valueEiE4typeELi0EEEOS9_(ptr noundef nonnull align 8 dereferenceable(8) %0, ptr noundef nonnull align 8 dereferenceable(8) %1) unnamed_addr #1 comdat align 2 {
  %3 = alloca ptr, align 8
  %4 = alloca ptr, align 8
  store ptr %0, ptr %3, align 8
  store ptr %1, ptr %4, align 8
  %5 = load ptr, ptr %3, align 8
  %6 = getelementptr inbounds %"struct.std::__1::__compressed_pair_elem.8", ptr %5, i32 0, i32 0
  %7 = load ptr, ptr %4, align 8
  %8 = load ptr, ptr %7, align 8
  store ptr %8, ptr %6, align 8
  ret void
}

; Function Attrs: mustprogress nounwind uwtable
define linkonce_odr hidden void @_ZNSt3__113__atomic_baseIiLb1EEC2B8ne190000Ei(ptr noundef nonnull align 4 dereferenceable(4) %0, i32 noundef %1) unnamed_addr #1 comdat align 2 {
  %3 = alloca ptr, align 8
  %4 = alloca i32, align 4
  store ptr %0, ptr %3, align 8
  store i32 %1, ptr %4, align 4
  %5 = load ptr, ptr %3, align 8
  %6 = load i32, ptr %4, align 4
  call void @_ZNSt3__113__atomic_baseIiLb0EEC2B8ne190000Ei(ptr noundef nonnull align 4 dereferenceable(4) %5, i32 noundef %6) #2
  ret void
}

; Function Attrs: noreturn nounwind uwtable
define linkonce_odr hidden void @__clang_call_terminate(ptr noundef %0) #7 comdat {
  %2 = call ptr @__cxa_begin_catch(ptr %0) #2
  call void @_ZSt9terminatev() #22
  unreachable
}

; Function Attrs: mustprogress uwtable
define linkonce_odr hidden void @_ZNSt3__117__compressed_pairIPN7mitsuba6Thread13ThreadPrivateENS_14default_deleteIS3_EEEC2B8ne190000IRS4_NS_16__value_init_tagEEEOT_OT0_(ptr noundef nonnull align 8 dereferenceable(8) %0, ptr noundef nonnull align 8 dereferenceable(8) %1, ptr noundef nonnull align 1 dereferenceable(1) %2) unnamed_addr #3 comdat align 2 {
  %4 = alloca ptr, align 8
  %5 = alloca ptr, align 8
  %6 = alloca ptr, align 8
  store ptr %0, ptr %4, align 8
  store ptr %1, ptr %5, align 8
  store ptr %2, ptr %6, align 8
  %7 = load ptr, ptr %4, align 8
  %8 = load ptr, ptr %5, align 8
  call void @_ZNSt3__122__compressed_pair_elemIPN7mitsuba6Thread13ThreadPrivateELi0ELb0EEC2B8ne190000IRS4_TnNS_9enable_ifIXntsr7is_sameIS5_u7__decayIT_EEE5valueEiE4typeELi0EEEOS9_(ptr noundef nonnull align 8 dereferenceable(8) %7, ptr noundef nonnull align 8 dereferenceable(8) %8)
  call void @_ZNSt3__122__compressed_pair_elemINS_14default_deleteIN7mitsuba6Thread13ThreadPrivateEEELi1ELb1EEC2B8ne190000ENS_16__value_init_tagE(ptr noundef nonnull align 1 dereferenceable(1) %7)
  ret void
}

; Function Attrs: mustprogress nounwind uwtable
define linkonce_odr hidden void @_ZN7mitsuba3refINS_6LoggerEED2Ev(ptr noundef nonnull align 8 dereferenceable(8) %0) unnamed_addr #1 comdat align 2 {
  %2 = alloca ptr, align 8
  store ptr %0, ptr %2, align 8
  %3 = load ptr, ptr %2, align 8
  %4 = getelementptr inbounds %"class.mitsuba::ref", ptr %3, i32 0, i32 0
  %5 = load ptr, ptr %4, align 8
  %6 = icmp ne ptr %5, null
  br i1 %6, label %7, label %10

7:                                                ; preds = %1
  %8 = getelementptr inbounds %"class.mitsuba::ref", ptr %3, i32 0, i32 0
  %9 = load ptr, ptr %8, align 8
  call void @_ZNK7mitsuba6Object7dec_refEb(ptr noundef nonnull align 8 dereferenceable(12) %9, i1 noundef zeroext true) #2
  br label %10

10:                                               ; preds = %7, %1
  ret void
}

; Function Attrs: mustprogress nounwind uwtable
define linkonce_odr hidden void @_ZN7mitsuba3refINS_6ThreadEED2Ev(ptr noundef nonnull align 8 dereferenceable(8) %0) unnamed_addr #1 comdat align 2 {
  %2 = alloca ptr, align 8
  store ptr %0, ptr %2, align 8
  %3 = load ptr, ptr %2, align 8
  %4 = getelementptr inbounds %"class.mitsuba::ref.17", ptr %3, i32 0, i32 0
  %5 = load ptr, ptr %4, align 8
  %6 = icmp ne ptr %5, null
  br i1 %6, label %7, label %10

7:                                                ; preds = %1
  %8 = getelementptr inbounds %"class.mitsuba::ref.17", ptr %3, i32 0, i32 0
  %9 = load ptr, ptr %8, align 8
  call void @_ZNK7mitsuba6Object7dec_refEb(ptr noundef nonnull align 8 dereferenceable(12) %9, i1 noundef zeroext true) #2
  br label %10

10:                                               ; preds = %7, %1
  ret void
}

; Function Attrs: mustprogress nounwind uwtable
define linkonce_odr hidden void @_ZN7mitsuba3refINS_12FileResolverEEC2Ev(ptr noundef nonnull align 8 dereferenceable(8) %0) unnamed_addr #1 comdat align 2 {
  %2 = alloca ptr, align 8
  store ptr %0, ptr %2, align 8
  %3 = load ptr, ptr %2, align 8
  %4 = getelementptr inbounds %"class.mitsuba::ref.18", ptr %3, i32 0, i32 0
  store ptr null, ptr %4, align 8
  ret void
}

; Function Attrs: mustprogress nounwind uwtable
define linkonce_odr hidden void @_ZN7mitsuba3refINS_6ThreadEEC2Ev(ptr noundef nonnull align 8 dereferenceable(8) %0) unnamed_addr #1 comdat align 2 {
  %2 = alloca ptr, align 8
  store ptr %0, ptr %2, align 8
  %3 = load ptr, ptr %2, align 8
  %4 = getelementptr inbounds %"class.mitsuba::ref.17", ptr %3, i32 0, i32 0
  store ptr null, ptr %4, align 8
  ret void
}

; Function Attrs: mustprogress nounwind uwtable
define linkonce_odr hidden void @_ZN7mitsuba3refINS_6LoggerEEC2Ev(ptr noundef nonnull align 8 dereferenceable(8) %0) unnamed_addr #1 comdat align 2 {
  %2 = alloca ptr, align 8
  store ptr %0, ptr %2, align 8
  %3 = load ptr, ptr %2, align 8
  %4 = getelementptr inbounds %"class.mitsuba::ref", ptr %3, i32 0, i32 0
  store ptr null, ptr %4, align 8
  ret void
}

; Function Attrs: mustprogress nounwind uwtable
define linkonce_odr hidden void @_ZNSt3__16threadC2B8ne190000Ev(ptr noundef nonnull align 8 dereferenceable(8) %0) unnamed_addr #1 comdat align 2 {
  %2 = alloca ptr, align 8
  store ptr %0, ptr %2, align 8
  %3 = load ptr, ptr %2, align 8
  %4 = getelementptr inbounds %"class.std::__1::thread", ptr %3, i32 0, i32 0
  store i64 0, ptr %4, align 8
  ret void
}

; Function Attrs: mustprogress nounwind uwtable
define linkonce_odr hidden void @_ZNSt3__16atomicIiEC2B8ne190000Ei(ptr noundef nonnull align 4 dereferenceable(4) %0, i32 noundef %1) unnamed_addr #1 comdat align 2 {
  %3 = alloca ptr, align 8
  %4 = alloca i32, align 4
  store ptr %0, ptr %3, align 8
  store i32 %1, ptr %4, align 4
  %5 = load ptr, ptr %3, align 8
  %6 = load i32, ptr %4, align 4
  call void @_ZNSt3__113__atomic_baseIiLb1EEC2B8ne190000Ei(ptr noundef nonnull align 4 dereferenceable(4) %5, i32 noundef %6) #2
  ret void
}

; Function Attrs: mustprogress nounwind uwtable
define linkonce_odr hidden void @_ZNSt3__110unique_ptrIN7mitsuba6Thread13ThreadPrivateENS_14default_deleteIS3_EEEC2B8ne190000ILb1EvEEPS3_(ptr noundef nonnull align 8 dereferenceable(8) %0, ptr noundef %1) unnamed_addr #1 comdat align 2 personality ptr @__gxx_personality_v0 {
  %3 = alloca ptr, align 8
  %4 = alloca ptr, align 8
  %5 = alloca %"struct.std::__1::__value_init_tag", align 1
  store ptr %0, ptr %3, align 8
  store ptr %1, ptr %4, align 8
  %6 = load ptr, ptr %3, align 8
  %7 = getelementptr inbounds %"class.std::__1::unique_ptr", ptr %6, i32 0, i32 0
  invoke void @_ZNSt3__117__compressed_pairIPN7mitsuba6Thread13ThreadPrivateENS_14default_deleteIS3_EEEC2B8ne190000IRS4_NS_16__value_init_tagEEEOT_OT0_(ptr noundef nonnull align 8 dereferenceable(8) %7, ptr noundef nonnull align 8 dereferenceable(8) %4, ptr noundef nonnull align 1 dereferenceable(1) %5)
          to label %8 unwind label %9

8:                                                ; preds = %2
  ret void

9:                                                ; preds = %2
  %10 = landingpad { ptr, i32 }
          catch ptr null
  %11 = extractvalue { ptr, i32 } %10, 0
  call void @__clang_call_terminate(ptr %11) #22
  unreachable
}

; Function Attrs: mustprogress uwtable
define linkonce_odr void @_ZN7mitsuba6Thread13ThreadPrivateC2ERKNSt3__112basic_stringIcNS2_11char_traitsIcEENS2_9allocatorIcEEEE(ptr noundef nonnull align 8 dereferenceable(80) %0, ptr noundef nonnull align 8 dereferenceable(24) %1) unnamed_addr #3 comdat align 2 personality ptr @__gxx_personality_v0 {
  %3 = alloca ptr, align 8
  %4 = alloca ptr, align 8
  %5 = alloca ptr, align 8
  %6 = alloca i32, align 4
  store ptr %0, ptr %3, align 8
  store ptr %1, ptr %4, align 8
  %7 = load ptr, ptr %3, align 8
  %8 = getelementptr inbounds %"struct.mitsuba::Thread::ThreadPrivate", ptr %7, i32 0, i32 0
  call void @_ZNSt3__16threadC2B8ne190000Ev(ptr noundef nonnull align 8 dereferenceable(8) %8) #2
  %9 = getelementptr inbounds %"struct.mitsuba::Thread::ThreadPrivate", ptr %7, i32 0, i32 2
  %10 = load ptr, ptr %4, align 8
  invoke void @_ZNSt3__112basic_stringIcNS_11char_traitsIcEENS_9allocatorIcEEEC1ERKS5_(ptr noundef nonnull align 8 dereferenceable(24) %9, ptr noundef nonnull align 8 dereferenceable(24) %10)
          to label %11 unwind label %22

11:                                               ; preds = %2
  %12 = getelementptr inbounds %"struct.mitsuba::Thread::ThreadPrivate", ptr %7, i32 0, i32 3
  store i8 0, ptr %12, align 8
  %13 = getelementptr inbounds %"struct.mitsuba::Thread::ThreadPrivate", ptr %7, i32 0, i32 4
  store i8 0, ptr %13, align 1
  %14 = getelementptr inbounds %"struct.mitsuba::Thread::ThreadPrivate", ptr %7, i32 0, i32 5
  store i8 0, ptr %14, align 2
  %15 = getelementptr inbounds %"struct.mitsuba::Thread::ThreadPrivate", ptr %7, i32 0, i32 6
  store i32 -1, ptr %15, align 4
  %16 = getelementptr inbounds %"struct.mitsuba::Thread::ThreadPrivate", ptr %7, i32 0, i32 8
  invoke void @_ZN7mitsuba3refINS_6LoggerEEC2Ev(ptr noundef nonnull align 8 dereferenceable(8) %16)
          to label %17 unwind label %26

17:                                               ; preds = %11
  %18 = getelementptr inbounds %"struct.mitsuba::Thread::ThreadPrivate", ptr %7, i32 0, i32 9
  invoke void @_ZN7mitsuba3refINS_6ThreadEEC2Ev(ptr noundef nonnull align 8 dereferenceable(8) %18)
          to label %19 unwind label %30

19:                                               ; preds = %17
  %20 = getelementptr inbounds %"struct.mitsuba::Thread::ThreadPrivate", ptr %7, i32 0, i32 10
  invoke void @_ZN7mitsuba3refINS_12FileResolverEEC2Ev(ptr noundef nonnull align 8 dereferenceable(8) %20)
          to label %21 unwind label %34

21:                                               ; preds = %19
  ret void

22:                                               ; preds = %2
  %23 = landingpad { ptr, i32 }
          cleanup
  %24 = extractvalue { ptr, i32 } %23, 0
  store ptr %24, ptr %5, align 8
  %25 = extractvalue { ptr, i32 } %23, 1
  store i32 %25, ptr %6, align 4
  br label %40

26:                                               ; preds = %11
  %27 = landingpad { ptr, i32 }
          cleanup
  %28 = extractvalue { ptr, i32 } %27, 0
  store ptr %28, ptr %5, align 8
  %29 = extractvalue { ptr, i32 } %27, 1
  store i32 %29, ptr %6, align 4
  br label %39

30:                                               ; preds = %17
  %31 = landingpad { ptr, i32 }
          cleanup
  %32 = extractvalue { ptr, i32 } %31, 0
  store ptr %32, ptr %5, align 8
  %33 = extractvalue { ptr, i32 } %31, 1
  store i32 %33, ptr %6, align 4
  br label %38

34:                                               ; preds = %19
  %35 = landingpad { ptr, i32 }
          cleanup
  %36 = extractvalue { ptr, i32 } %35, 0
  store ptr %36, ptr %5, align 8
  %37 = extractvalue { ptr, i32 } %35, 1
  store i32 %37, ptr %6, align 4
  call void @_ZN7mitsuba3refINS_6ThreadEED2Ev(ptr noundef nonnull align 8 dereferenceable(8) %18) #2
  br label %38

38:                                               ; preds = %34, %30
  call void @_ZN7mitsuba3refINS_6LoggerEED2Ev(ptr noundef nonnull align 8 dereferenceable(8) %16) #2
  br label %39

39:                                               ; preds = %38, %26
  call void @_ZNSt3__112basic_stringIcNS_11char_traitsIcEENS_9allocatorIcEEED1Ev(ptr noundef nonnull align 8 dereferenceable(24) %9) #2
  br label %40

40:                                               ; preds = %39, %22
  call void @_ZNSt3__16threadD1Ev(ptr noundef nonnull align 8 dereferenceable(8) %8) #2
  br label %41

41:                                               ; preds = %40
  %42 = load ptr, ptr %5, align 8
  %43 = load i32, ptr %6, align 4
  %44 = insertvalue { ptr, i32 } poison, ptr %42, 0
  %45 = insertvalue { ptr, i32 } %44, i32 %43, 1
  resume { ptr, i32 } %45
}

; Function Attrs: mustprogress nounwind uwtable
define linkonce_odr void @_ZN7mitsuba6ObjectC2Ev(ptr noundef nonnull align 8 dereferenceable(12) %0) unnamed_addr #1 comdat align 2 {
  %2 = alloca ptr, align 8
  store ptr %0, ptr %2, align 8
  %3 = load ptr, ptr %2, align 8
  store ptr getelementptr inbounds inrange(-16, 72) ({ [11 x ptr] }, ptr @_ZTVN7mitsuba6ObjectE, i32 0, i32 0, i32 2), ptr %3, align 8
  %4 = getelementptr inbounds %"class.mitsuba::Object", ptr %3, i32 0, i32 1
  call void @_ZNSt3__16atomicIiEC2B8ne190000Ei(ptr noundef nonnull align 4 dereferenceable(4) %4, i32 noundef 0) #2
  ret void
}

; Function Attrs: mustprogress uwtable
define void @_ZN7mitsuba6ThreadC2ERKNSt3__112basic_stringIcNS1_11char_traitsIcEENS1_9allocatorIcEEEE(ptr noundef nonnull align 8 dereferenceable(24) %0, ptr noundef nonnull align 8 dereferenceable(24) %1) unnamed_addr #3 align 2 personality ptr @__gxx_personality_v0 {
  %3 = alloca ptr, align 8
  %4 = alloca ptr, align 8
  %5 = alloca ptr, align 8
  %6 = alloca i32, align 4
  store ptr %0, ptr %3, align 8
  store ptr %1, ptr %4, align 8
  %7 = load ptr, ptr %3, align 8
  call void @_ZN7mitsuba6ObjectC2Ev(ptr noundef nonnull align 8 dereferenceable(12) %7)
  store ptr getelementptr inbounds inrange(-16, 80) ({ [12 x ptr] }, ptr @_ZTVN7mitsuba6ThreadE, i32 0, i32 0, i32 2), ptr %7, align 8
  %8 = getelementptr inbounds %"class.mitsuba::Thread", ptr %7, i32 0, i32 1
  %9 = invoke noalias noundef nonnull ptr @_Znwm(i64 noundef 80) #23
          to label %10 unwind label %13

10:                                               ; preds = %2
  %11 = load ptr, ptr %4, align 8
  invoke void @_ZN7mitsuba6Thread13ThreadPrivateC2ERKNSt3__112basic_stringIcNS2_11char_traitsIcEENS2_9allocatorIcEEEE(ptr noundef nonnull align 8 dereferenceable(80) %9, ptr noundef nonnull align 8 dereferenceable(24) %11)
          to label %12 unwind label %17

12:                                               ; preds = %10
  call void @_ZNSt3__110unique_ptrIN7mitsuba6Thread13ThreadPrivateENS_14default_deleteIS3_EEEC2B8ne190000ILb1EvEEPS3_(ptr noundef nonnull align 8 dereferenceable(8) %8, ptr noundef %9) #2
  ret void

13:                                               ; preds = %2
  %14 = landingpad { ptr, i32 }
          cleanup
  %15 = extractvalue { ptr, i32 } %14, 0
  store ptr %15, ptr %5, align 8
  %16 = extractvalue { ptr, i32 } %14, 1
  store i32 %16, ptr %6, align 4
  br label %21

17:                                               ; preds = %10
  %18 = landingpad { ptr, i32 }
          cleanup
  %19 = extractvalue { ptr, i32 } %18, 0
  store ptr %19, ptr %5, align 8
  %20 = extractvalue { ptr, i32 } %18, 1
  store i32 %20, ptr %6, align 4
  call void @_ZdlPv(ptr noundef %9) #24
  br label %21

21:                                               ; preds = %17, %13
  call void @_ZN7mitsuba6ObjectD2Ev(ptr noundef nonnull align 8 dereferenceable(12) %7) #2
  br label %22

22:                                               ; preds = %21
  %23 = load ptr, ptr %5, align 8
  %24 = load i32, ptr %6, align 4
  %25 = insertvalue { ptr, i32 } poison, ptr %23, 0
  %26 = insertvalue { ptr, i32 } %25, i32 %24, 1
  resume { ptr, i32 } %26
}