; Function Attrs: mustprogress uwtable
define void @_ZN7mitsuba6ThreadC2ERKNSt3__112basic_stringIcNS1_11char_traitsIcEENS1_9allocatorIcEEEE(ptr noundef nonnull align 8 dereferenceable(24) %0, ptr noundef nonnull align 8 dereferenceable(24) %1) unnamed_addr #4 align 2 personality ptr @__gxx_personality_v0 {
  %3 = getelementptr inbounds i8, ptr %0, i64 8
  store i32 0, ptr %3, align 8
  store ptr getelementptr inbounds inrange(-16, 80) ({ [12 x ptr] }, ptr @_ZTVN7mitsuba6ThreadE, i64 0, i32 0, i64 2), ptr %0, align 8
  %4 = invoke noalias noundef nonnull dereferenceable(80) ptr @_Znwm(i64 noundef 80) #32
          to label %5 unwind label %15

5:                                                ; preds = %2
  store i64 0, ptr %4, align 8
  %6 = getelementptr inbounds i8, ptr %4, i64 16
  invoke void @_ZNSt3__112basic_stringIcNS_11char_traitsIcEENS_9allocatorIcEEEC1ERKS5_(ptr noundef nonnull align 8 dereferenceable(24) %6, ptr noundef nonnull align 8 dereferenceable(24) %1)
          to label %8 unwind label %.body

.body:                                            ; preds = %5
  %7 = landingpad { ptr, i32 }
          cleanup
  tail call void @_ZNSt3__16threadD1Ev(ptr noundef nonnull align 8 dereferenceable(8) %4) #3
  tail call void @_ZdlPv(ptr noundef nonnull %4) #31
  br label %17

8:                                                ; preds = %5
  %9 = getelementptr inbounds i8, ptr %4, i64 40
  store i8 0, ptr %9, align 8
  %10 = getelementptr inbounds i8, ptr %4, i64 41
  store i8 0, ptr %10, align 1
  %11 = getelementptr inbounds i8, ptr %4, i64 42
  store i8 0, ptr %11, align 2
  %12 = getelementptr inbounds i8, ptr %4, i64 44
  store i32 -1, ptr %12, align 4
  %13 = getelementptr inbounds i8, ptr %4, i64 56
  tail call void @llvm.memset.p0.i64(ptr noundef nonnull align 8 dereferenceable(24) %13, i8 0, i64 24, i1 false)
  %14 = getelementptr inbounds i8, ptr %0, i64 16
  store ptr %4, ptr %14, align 8
  ret void

15:                                               ; preds = %2
  %16 = landingpad { ptr, i32 }
          cleanup
  br label %17

17:                                               ; preds = %.body, %15
  %.pn = phi { ptr, i32 } [ %7, %.body ], [ %16, %15 ]
  tail call void @_ZN7mitsuba6ObjectD2Ev(ptr noundef nonnull align 8 dereferenceable(12) %0) #3
  resume { ptr, i32 } %.pn
}